target datalayout = "e-m:e-p270:32:32-p271:32:32-p272:64:64-i64:64-i128:128-f80:128-n8:16:32:64-S128"
target triple = "x86_64-pc-linux-gnu"

@.str = private unnamed_addr constant [7 x i8] c"branch\00", align 1
@.str.1 = private unnamed_addr constant [13 x i8] c"dont_flatten\00", align 1
@.str.2 = private unnamed_addr constant [8 x i8] c"flatten\00", align 1
@.str.3 = private unnamed_addr constant [7 x i8] c"unroll\00", align 1
@.str.4 = private unnamed_addr constant [5 x i8] c"loop\00", align 1
@.str.5 = private unnamed_addr constant [12 x i8] c"dont_unroll\00", align 1
@.str.6 = private unnamed_addr constant [20 x i8] c"dependency_infinite\00", align 1
@.str.7 = private unnamed_addr constant [18 x i8] c"dependency_length\00", align 1
@.str.8 = private unnamed_addr constant [15 x i8] c"min_iterations\00", align 1
@.str.9 = private unnamed_addr constant [15 x i8] c"max_iterations\00", align 1
@.str.10 = private unnamed_addr constant [19 x i8] c"iteration_multiple\00", align 1
@.str.11 = private unnamed_addr constant [11 x i8] c"peel_count\00", align 1
@.str.12 = private unnamed_addr constant [14 x i8] c"partial_count\00", align 1
@.str.13 = private unnamed_addr constant [30 x i8] c"subgroup_uniform_control_flow\00", align 1
@.str.14 = private unnamed_addr constant [7 x i8] c"export\00", align 1
@.str.15 = private unnamed_addr constant [22 x i8] c"maximally_reconverges\00", align 1

; Function Attrs: mustprogress nounwind uwtable
define noundef i32 @_ZNK7glslang13TParseContext17attributeFromNameERKNSt7__cxx1112basic_stringIcSt11char_traitsIcENS_14pool_allocatorIcEEEE(ptr noundef nonnull align 8 dereferenceable(30232) %0, ptr noundef nonnull align 8 dereferenceable(40) %1) #0 align 2 {
  %3 = alloca i32, align 4
  %4 = alloca ptr, align 8
  %5 = alloca ptr, align 8
  store ptr %0, ptr %4, align 8
  store ptr %1, ptr %5, align 8
  %6 = load ptr, ptr %5, align 8
  %7 = call noundef zeroext i1 @_ZSteqIcSt11char_traitsIcEN7glslang14pool_allocatorIcEEEbRKNSt7__cxx1112basic_stringIT_T0_T1_EEPKS7_(ptr noundef nonnull align 8 dereferenceable(40) %6, ptr noundef @.str)
  br i1 %7, label %11, label %8

8:                                                ; preds = %2
  %9 = load ptr, ptr %5, align 8
  %10 = call noundef zeroext i1 @_ZSteqIcSt11char_traitsIcEN7glslang14pool_allocatorIcEEEbRKNSt7__cxx1112basic_stringIT_T0_T1_EEPKS7_(ptr noundef nonnull align 8 dereferenceable(40) %9, ptr noundef @.str.1)
  br i1 %10, label %11, label %12

11:                                               ; preds = %8, %2
  store i32 2, ptr %3, align 4
  br label %68

12:                                               ; preds = %8
  %13 = load ptr, ptr %5, align 8
  %14 = call noundef zeroext i1 @_ZSteqIcSt11char_traitsIcEN7glslang14pool_allocatorIcEEEbRKNSt7__cxx1112basic_stringIT_T0_T1_EEPKS7_(ptr noundef nonnull align 8 dereferenceable(40) %13, ptr noundef @.str.2)
  br i1 %14, label %15, label %16

15:                                               ; preds = %12
  store i32 7, ptr %3, align 4
  br label %68

16:                                               ; preds = %12
  %17 = load ptr, ptr %5, align 8
  %18 = call noundef zeroext i1 @_ZSteqIcSt11char_traitsIcEN7glslang14pool_allocatorIcEEEbRKNSt7__cxx1112basic_stringIT_T0_T1_EEPKS7_(ptr noundef nonnull align 8 dereferenceable(40) %17, ptr noundef @.str.3)
  br i1 %18, label %19, label %20

19:                                               ; preds = %16
  store i32 18, ptr %3, align 4
  br label %68

20:                                               ; preds = %16
  %21 = load ptr, ptr %5, align 8
  %22 = call noundef zeroext i1 @_ZSteqIcSt11char_traitsIcEN7glslang14pool_allocatorIcEEEbRKNSt7__cxx1112basic_stringIT_T0_T1_EEPKS7_(ptr noundef nonnull align 8 dereferenceable(40) %21, ptr noundef @.str.4)
  br i1 %22, label %26, label %23

23:                                               ; preds = %20
  %24 = load ptr, ptr %5, align 8
  %25 = call noundef zeroext i1 @_ZSteqIcSt11char_traitsIcEN7glslang14pool_allocatorIcEEEbRKNSt7__cxx1112basic_stringIT_T0_T1_EEPKS7_(ptr noundef nonnull align 8 dereferenceable(40) %24, ptr noundef @.str.5)
  br i1 %25, label %26, label %27

26:                                               ; preds = %23, %20
  store i32 19, ptr %3, align 4
  br label %68

27:                                               ; preds = %23
  %28 = load ptr, ptr %5, align 8
  %29 = call noundef zeroext i1 @_ZSteqIcSt11char_traitsIcEN7glslang14pool_allocatorIcEEEbRKNSt7__cxx1112basic_stringIT_T0_T1_EEPKS7_(ptr noundef nonnull align 8 dereferenceable(40) %28, ptr noundef @.str.6)
  br i1 %29, label %30, label %31

30:                                               ; preds = %27
  store i32 27, ptr %3, align 4
  br label %68

31:                                               ; preds = %27
  %32 = load ptr, ptr %5, align 8
  %33 = call noundef zeroext i1 @_ZSteqIcSt11char_traitsIcEN7glslang14pool_allocatorIcEEEbRKNSt7__cxx1112basic_stringIT_T0_T1_EEPKS7_(ptr noundef nonnull align 8 dereferenceable(40) %32, ptr noundef @.str.7)
  br i1 %33, label %34, label %35

34:                                               ; preds = %31
  store i32 28, ptr %3, align 4
  br label %68

35:                                               ; preds = %31
  %36 = load ptr, ptr %5, align 8
  %37 = call noundef zeroext i1 @_ZSteqIcSt11char_traitsIcEN7glslang14pool_allocatorIcEEEbRKNSt7__cxx1112basic_stringIT_T0_T1_EEPKS7_(ptr noundef nonnull align 8 dereferenceable(40) %36, ptr noundef @.str.8)
  br i1 %37, label %38, label %39

38:                                               ; preds = %35
  store i32 29, ptr %3, align 4
  br label %68

39:                                               ; preds = %35
  %40 = load ptr, ptr %5, align 8
  %41 = call noundef zeroext i1 @_ZSteqIcSt11char_traitsIcEN7glslang14pool_allocatorIcEEEbRKNSt7__cxx1112basic_stringIT_T0_T1_EEPKS7_(ptr noundef nonnull align 8 dereferenceable(40) %40, ptr noundef @.str.9)
  br i1 %41, label %42, label %43

42:                                               ; preds = %39
  store i32 30, ptr %3, align 4
  br label %68

43:                                               ; preds = %39
  %44 = load ptr, ptr %5, align 8
  %45 = call noundef zeroext i1 @_ZSteqIcSt11char_traitsIcEN7glslang14pool_allocatorIcEEEbRKNSt7__cxx1112basic_stringIT_T0_T1_EEPKS7_(ptr noundef nonnull align 8 dereferenceable(40) %44, ptr noundef @.str.10)
  br i1 %45, label %46, label %47

46:                                               ; preds = %43
  store i32 31, ptr %3, align 4
  br label %68

47:                                               ; preds = %43
  %48 = load ptr, ptr %5, align 8
  %49 = call noundef zeroext i1 @_ZSteqIcSt11char_traitsIcEN7glslang14pool_allocatorIcEEEbRKNSt7__cxx1112basic_stringIT_T0_T1_EEPKS7_(ptr noundef nonnull align 8 dereferenceable(40) %48, ptr noundef @.str.11)
  br i1 %49, label %50, label %51

50:                                               ; preds = %47
  store i32 32, ptr %3, align 4
  br label %68

51:                                               ; preds = %47
  %52 = load ptr, ptr %5, align 8
  %53 = call noundef zeroext i1 @_ZSteqIcSt11char_traitsIcEN7glslang14pool_allocatorIcEEEbRKNSt7__cxx1112basic_stringIT_T0_T1_EEPKS7_(ptr noundef nonnull align 8 dereferenceable(40) %52, ptr noundef @.str.12)
  br i1 %53, label %54, label %55

54:                                               ; preds = %51
  store i32 33, ptr %3, align 4
  br label %68

55:                                               ; preds = %51
  %56 = load ptr, ptr %5, align 8
  %57 = call noundef zeroext i1 @_ZSteqIcSt11char_traitsIcEN7glslang14pool_allocatorIcEEEbRKNSt7__cxx1112basic_stringIT_T0_T1_EEPKS7_(ptr noundef nonnull align 8 dereferenceable(40) %56, ptr noundef @.str.13)
  br i1 %57, label %58, label %59

58:                                               ; preds = %55
  store i32 76, ptr %3, align 4
  br label %68

59:                                               ; preds = %55
  %60 = load ptr, ptr %5, align 8
  %61 = call noundef zeroext i1 @_ZSteqIcSt11char_traitsIcEN7glslang14pool_allocatorIcEEEbRKNSt7__cxx1112basic_stringIT_T0_T1_EEPKS7_(ptr noundef nonnull align 8 dereferenceable(40) %60, ptr noundef @.str.14)
  br i1 %61, label %62, label %63

62:                                               ; preds = %59
  store i32 77, ptr %3, align 4
  br label %68

63:                                               ; preds = %59
  %64 = load ptr, ptr %5, align 8
  %65 = call noundef zeroext i1 @_ZSteqIcSt11char_traitsIcEN7glslang14pool_allocatorIcEEEbRKNSt7__cxx1112basic_stringIT_T0_T1_EEPKS7_(ptr noundef nonnull align 8 dereferenceable(40) %64, ptr noundef @.str.15)
  br i1 %65, label %66, label %67

66:                                               ; preds = %63
  store i32 78, ptr %3, align 4
  br label %68

67:                                               ; preds = %63
  store i32 0, ptr %3, align 4
  br label %68

68:                                               ; preds = %67, %66, %62, %58, %54, %50, %46, %42, %38, %34, %30, %26, %19, %15, %11
  %69 = load i32, ptr %3, align 4
  ret i32 %69
}