; Function Attrs: mustprogress nounwind uwtable
define noundef range(i32 0, 79) i32 @_ZNK7glslang13TParseContext17attributeFromNameERKNSt7__cxx1112basic_stringIcSt11char_traitsIcENS_14pool_allocatorIcEEEE(ptr nocapture nonnull readnone align 8 %0, ptr noundef nonnull align 8 dereferenceable(40) %1) local_unnamed_addr #0 align 2 {
  %3 = getelementptr inbounds i8, ptr %1, i64 16
  %4 = load i64, ptr %3, align 8
  %cond = icmp eq i64 %4, 0
  br i1 %cond, label %_ZSteqIcSt11char_traitsIcEN7glslang14pool_allocatorIcEEEbRKNSt7__cxx1112basic_stringIT_T0_T1_EEPKS7_.exit50.thread, label %_ZNSt11char_traitsIcE7compareEPKcS2_m.exit.i.i

_ZNSt11char_traitsIcE7compareEPKcS2_m.exit.i.i:   ; preds = %2
  %.sroa.speculated.i.i = tail call i64 @llvm.umin.i64(i64 %4, i64 6)
  %5 = getelementptr inbounds i8, ptr %1, i64 8
  %6 = load ptr, ptr %5, align 8
  %bcmp.i = tail call i32 @bcmp(ptr %6, ptr nonnull @.str, i64 %.sroa.speculated.i.i)
  %.not.i.i = icmp eq i32 %bcmp.i, 0
  %7 = icmp eq i64 %4, 6
  %or.cond = and i1 %7, %.not.i.i
  br i1 %or.cond, label %31, label %_ZNSt11char_traitsIcE7compareEPKcS2_m.exit.i.i17

_ZNSt11char_traitsIcE7compareEPKcS2_m.exit.i.i17: ; preds = %_ZNSt11char_traitsIcE7compareEPKcS2_m.exit.i.i
  %.sroa.speculated.i.i16 = tail call i64 @llvm.umin.i64(i64 %4, i64 12)
  %bcmp.i18 = tail call i32 @bcmp(ptr %6, ptr nonnull @.str.1, i64 %.sroa.speculated.i.i16)
  %.not.i.i19 = icmp eq i32 %bcmp.i18, 0
  %8 = icmp eq i64 %4, 12
  %or.cond58 = and i1 %8, %.not.i.i19
  br i1 %or.cond58, label %31, label %_ZNSt11char_traitsIcE7compareEPKcS2_m.exit.i.i24

_ZNSt11char_traitsIcE7compareEPKcS2_m.exit.i.i24: ; preds = %_ZNSt11char_traitsIcE7compareEPKcS2_m.exit.i.i17
  %.sroa.speculated.i.i23 = tail call i64 @llvm.umin.i64(i64 %4, i64 7)
  %bcmp.i25 = tail call i32 @bcmp(ptr %6, ptr nonnull @.str.2, i64 %.sroa.speculated.i.i23)
  %.not.i.i26 = icmp eq i32 %bcmp.i25, 0
  %9 = icmp eq i64 %4, 7
  %or.cond60 = and i1 %9, %.not.i.i26
  br i1 %or.cond60, label %31, label %_ZNSt11char_traitsIcE7compareEPKcS2_m.exit.i.i31

_ZNSt11char_traitsIcE7compareEPKcS2_m.exit.i.i31: ; preds = %_ZNSt11char_traitsIcE7compareEPKcS2_m.exit.i.i24
  %bcmp.i32 = tail call i32 @bcmp(ptr %6, ptr nonnull @.str.3, i64 %.sroa.speculated.i.i)
  %.not.i.i33 = icmp eq i32 %bcmp.i32, 0
  %or.cond62 = and i1 %7, %.not.i.i33
  br i1 %or.cond62, label %31, label %_ZNSt11char_traitsIcE7compareEPKcS2_m.exit.i.i38

_ZNSt11char_traitsIcE7compareEPKcS2_m.exit.i.i38: ; preds = %_ZNSt11char_traitsIcE7compareEPKcS2_m.exit.i.i31
  %.sroa.speculated.i.i37 = tail call i64 @llvm.umin.i64(i64 %4, i64 4)
  %bcmp.i39 = tail call i32 @bcmp(ptr %6, ptr nonnull @.str.4, i64 %.sroa.speculated.i.i37)
  %.not.i.i40 = icmp eq i32 %bcmp.i39, 0
  %10 = icmp eq i64 %4, 4
  %or.cond64 = and i1 %10, %.not.i.i40
  br i1 %or.cond64, label %31, label %_ZNSt11char_traitsIcE7compareEPKcS2_m.exit.i.i45

_ZNSt11char_traitsIcE7compareEPKcS2_m.exit.i.i45: ; preds = %_ZNSt11char_traitsIcE7compareEPKcS2_m.exit.i.i38
  %.sroa.speculated.i.i44 = tail call i64 @llvm.umin.i64(i64 %4, i64 11)
  %bcmp.i46 = tail call i32 @bcmp(ptr %6, ptr nonnull @.str.5, i64 %.sroa.speculated.i.i44)
  %.not.i.i47 = icmp eq i32 %bcmp.i46, 0
  %11 = icmp eq i64 %4, 11
  %or.cond66 = and i1 %11, %.not.i.i47
  br i1 %or.cond66, label %31, label %_ZSteqIcSt11char_traitsIcEN7glslang14pool_allocatorIcEEEbRKNSt7__cxx1112basic_stringIT_T0_T1_EEPKS7_.exit50.thread

_ZSteqIcSt11char_traitsIcEN7glslang14pool_allocatorIcEEEbRKNSt7__cxx1112basic_stringIT_T0_T1_EEPKS7_.exit50.thread: ; preds = %2, %_ZNSt11char_traitsIcE7compareEPKcS2_m.exit.i.i45
  %12 = tail call noundef zeroext i1 @_ZSteqIcSt11char_traitsIcEN7glslang14pool_allocatorIcEEEbRKNSt7__cxx1112basic_stringIT_T0_T1_EEPKS7_(ptr noundef nonnull align 8 dereferenceable(40) %1, ptr noundef nonnull @.str.6)
  br i1 %12, label %31, label %13

13:                                               ; preds = %_ZSteqIcSt11char_traitsIcEN7glslang14pool_allocatorIcEEEbRKNSt7__cxx1112basic_stringIT_T0_T1_EEPKS7_.exit50.thread
  %14 = tail call noundef zeroext i1 @_ZSteqIcSt11char_traitsIcEN7glslang14pool_allocatorIcEEEbRKNSt7__cxx1112basic_stringIT_T0_T1_EEPKS7_(ptr noundef nonnull align 8 dereferenceable(40) %1, ptr noundef nonnull @.str.7)
  br i1 %14, label %31, label %15

15:                                               ; preds = %13
  %16 = tail call noundef zeroext i1 @_ZSteqIcSt11char_traitsIcEN7glslang14pool_allocatorIcEEEbRKNSt7__cxx1112basic_stringIT_T0_T1_EEPKS7_(ptr noundef nonnull align 8 dereferenceable(40) %1, ptr noundef nonnull @.str.8)
  br i1 %16, label %31, label %17

17:                                               ; preds = %15
  %18 = tail call noundef zeroext i1 @_ZSteqIcSt11char_traitsIcEN7glslang14pool_allocatorIcEEEbRKNSt7__cxx1112basic_stringIT_T0_T1_EEPKS7_(ptr noundef nonnull align 8 dereferenceable(40) %1, ptr noundef nonnull @.str.9)
  br i1 %18, label %31, label %19

19:                                               ; preds = %17
  %20 = tail call noundef zeroext i1 @_ZSteqIcSt11char_traitsIcEN7glslang14pool_allocatorIcEEEbRKNSt7__cxx1112basic_stringIT_T0_T1_EEPKS7_(ptr noundef nonnull align 8 dereferenceable(40) %1, ptr noundef nonnull @.str.10)
  br i1 %20, label %31, label %21

21:                                               ; preds = %19
  %22 = tail call noundef zeroext i1 @_ZSteqIcSt11char_traitsIcEN7glslang14pool_allocatorIcEEEbRKNSt7__cxx1112basic_stringIT_T0_T1_EEPKS7_(ptr noundef nonnull align 8 dereferenceable(40) %1, ptr noundef nonnull @.str.11)
  br i1 %22, label %31, label %23

23:                                               ; preds = %21
  %24 = tail call noundef zeroext i1 @_ZSteqIcSt11char_traitsIcEN7glslang14pool_allocatorIcEEEbRKNSt7__cxx1112basic_stringIT_T0_T1_EEPKS7_(ptr noundef nonnull align 8 dereferenceable(40) %1, ptr noundef nonnull @.str.12)
  br i1 %24, label %31, label %25

25:                                               ; preds = %23
  %26 = tail call noundef zeroext i1 @_ZSteqIcSt11char_traitsIcEN7glslang14pool_allocatorIcEEEbRKNSt7__cxx1112basic_stringIT_T0_T1_EEPKS7_(ptr noundef nonnull align 8 dereferenceable(40) %1, ptr noundef nonnull @.str.13)
  br i1 %26, label %31, label %27

27:                                               ; preds = %25
  %28 = tail call noundef zeroext i1 @_ZSteqIcSt11char_traitsIcEN7glslang14pool_allocatorIcEEEbRKNSt7__cxx1112basic_stringIT_T0_T1_EEPKS7_(ptr noundef nonnull align 8 dereferenceable(40) %1, ptr noundef nonnull @.str.14)
  br i1 %28, label %31, label %29

29:                                               ; preds = %27
  %30 = tail call noundef zeroext i1 @_ZSteqIcSt11char_traitsIcEN7glslang14pool_allocatorIcEEEbRKNSt7__cxx1112basic_stringIT_T0_T1_EEPKS7_(ptr noundef nonnull align 8 dereferenceable(40) %1, ptr noundef nonnull @.str.15)
  %. = select i1 %30, i32 78, i32 0
  br label %31

31:                                               ; preds = %_ZNSt11char_traitsIcE7compareEPKcS2_m.exit.i.i45, %_ZNSt11char_traitsIcE7compareEPKcS2_m.exit.i.i38, %_ZNSt11char_traitsIcE7compareEPKcS2_m.exit.i.i31, %_ZNSt11char_traitsIcE7compareEPKcS2_m.exit.i.i24, %_ZNSt11char_traitsIcE7compareEPKcS2_m.exit.i.i17, %_ZNSt11char_traitsIcE7compareEPKcS2_m.exit.i.i, %29, %27, %25, %23, %21, %19, %17, %15, %13, %_ZSteqIcSt11char_traitsIcEN7glslang14pool_allocatorIcEEEbRKNSt7__cxx1112basic_stringIT_T0_T1_EEPKS7_.exit50.thread
  %.0 = phi i32 [ 27, %_ZSteqIcSt11char_traitsIcEN7glslang14pool_allocatorIcEEEbRKNSt7__cxx1112basic_stringIT_T0_T1_EEPKS7_.exit50.thread ], [ 28, %13 ], [ 29, %15 ], [ 30, %17 ], [ 31, %19 ], [ 32, %21 ], [ 33, %23 ], [ 76, %25 ], [ 77, %27 ], [ %., %29 ], [ 2, %_ZNSt11char_traitsIcE7compareEPKcS2_m.exit.i.i ], [ 2, %_ZNSt11char_traitsIcE7compareEPKcS2_m.exit.i.i17 ], [ 7, %_ZNSt11char_traitsIcE7compareEPKcS2_m.exit.i.i24 ], [ 18, %_ZNSt11char_traitsIcE7compareEPKcS2_m.exit.i.i31 ], [ 19, %_ZNSt11char_traitsIcE7compareEPKcS2_m.exit.i.i38 ], [ 19, %_ZNSt11char_traitsIcE7compareEPKcS2_m.exit.i.i45 ]
  ret i32 %.0
}